target datalayout = "e-m:e-p270:32:32-p271:32:32-p272:64:64-i64:64-i128:128-f80:128-n8:16:32:64-S128"
target triple = "x86_64-pc-linux-gnu"

%struct.SDL_HIDAPI_DeviceDriver = type { ptr, i8, ptr, ptr, ptr, ptr, ptr, ptr, ptr, ptr, ptr, ptr, ptr, ptr, ptr, ptr, ptr, ptr, ptr }
%struct.SDL_AtomicInt = type { i32 }
%struct.SDL_HIDAPI_Device = type { ptr, ptr, ptr, ptr, i16, i16, i16, ptr, %struct.SDL_GUID, i32, i32, i32, i32, i16, i16, i8, i32, i32, i32, ptr, ptr, ptr, ptr, %struct.SDL_AtomicInt, i32, ptr, i8, i8, i8, ptr, i32, ptr, ptr }
%struct.SDL_GUID = type { [16 x i8] }
%struct.SDL_Joystick = type { i32, ptr, ptr, ptr, %struct.SDL_GUID, i16, i64, i8, i8, i32, ptr, i32, ptr, i32, ptr, i32, ptr, i32, ptr, i32, i32, ptr, i16, i16, i64, i64, i16, i16, i64, i64, i8, i8, i8, i64, i8, i32, i32, i32, i8, i32, ptr, i32, ptr, [3 x [3 x float]], i64, ptr, ptr, i32, i32, ptr }
%struct.joystick_hwdata = type { ptr }

@SDL_HIDAPI_devices = internal global ptr null, align 8
@.str.7 = private unnamed_addr constant [26 x i8] c"SDL.joystick.cap.mono_led\00", align 1
@.str.8 = private unnamed_addr constant [25 x i8] c"SDL.joystick.cap.rgb_led\00", align 1
@.str.9 = private unnamed_addr constant [28 x i8] c"SDL.joystick.cap.player_led\00", align 1
@.str.10 = private unnamed_addr constant [24 x i8] c"SDL.joystick.cap.rumble\00", align 1
@.str.11 = private unnamed_addr constant [32 x i8] c"SDL.joystick.cap.trigger_rumble\00", align 1
@.str.30 = private unnamed_addr constant [40 x i8] c"Couldn't find HIDAPI device at index %d\00", align 1
@.str.31 = private unnamed_addr constant [41 x i8] c"HIDAPI device disconnected while opening\00", align 1

; Function Attrs: nounwind uwtable
define internal void @HIDAPI_UpdateJoystickProperties(ptr noundef %0, ptr noundef %1) #0 {
  %3 = alloca ptr, align 8
  %4 = alloca ptr, align 8
  %5 = alloca i32, align 4
  %6 = alloca i32, align 4
  store ptr %0, ptr %3, align 8
  store ptr %1, ptr %4, align 8
  call void @llvm.lifetime.start.p0(i64 4, ptr %5) #7
  %7 = load ptr, ptr %4, align 8
  %8 = call i32 @SDL_GetJoystickProperties_REAL(ptr noundef %7)
  store i32 %8, ptr %5, align 4
  call void @llvm.lifetime.start.p0(i64 4, ptr %6) #7
  %9 = load ptr, ptr %3, align 8
  %10 = getelementptr inbounds nuw %struct.SDL_HIDAPI_Device, ptr %9, i32 0, i32 19
  %11 = load ptr, ptr %10, align 8
  %12 = getelementptr inbounds nuw %struct.SDL_HIDAPI_DeviceDriver, ptr %11, i32 0, i32 13
  %13 = load ptr, ptr %12, align 8
  %14 = load ptr, ptr %3, align 8
  %15 = load ptr, ptr %4, align 8
  %16 = call i32 %13(ptr noundef %14, ptr noundef %15)
  store i32 %16, ptr %6, align 4
  %17 = load i32, ptr %6, align 4
  %18 = and i32 %17, 1
  %19 = icmp ne i32 %18, 0
  br i1 %19, label %20, label %23

20:                                               ; preds = %2
  %21 = load i32, ptr %5, align 4
  %22 = call zeroext i1 @SDL_SetBooleanProperty_REAL(i32 noundef %21, ptr noundef @.str.7, i1 noundef zeroext true)
  br label %26

23:                                               ; preds = %2
  %24 = load i32, ptr %5, align 4
  %25 = call zeroext i1 @SDL_SetBooleanProperty_REAL(i32 noundef %24, ptr noundef @.str.7, i1 noundef zeroext false)
  br label %26

26:                                               ; preds = %23, %20
  %27 = load i32, ptr %6, align 4
  %28 = and i32 %27, 2
  %29 = icmp ne i32 %28, 0
  br i1 %29, label %30, label %33

30:                                               ; preds = %26
  %31 = load i32, ptr %5, align 4
  %32 = call zeroext i1 @SDL_SetBooleanProperty_REAL(i32 noundef %31, ptr noundef @.str.8, i1 noundef zeroext true)
  br label %36

33:                                               ; preds = %26
  %34 = load i32, ptr %5, align 4
  %35 = call zeroext i1 @SDL_SetBooleanProperty_REAL(i32 noundef %34, ptr noundef @.str.8, i1 noundef zeroext false)
  br label %36

36:                                               ; preds = %33, %30
  %37 = load i32, ptr %6, align 4
  %38 = and i32 %37, 4
  %39 = icmp ne i32 %38, 0
  br i1 %39, label %40, label %43

40:                                               ; preds = %36
  %41 = load i32, ptr %5, align 4
  %42 = call zeroext i1 @SDL_SetBooleanProperty_REAL(i32 noundef %41, ptr noundef @.str.9, i1 noundef zeroext true)
  br label %46

43:                                               ; preds = %36
  %44 = load i32, ptr %5, align 4
  %45 = call zeroext i1 @SDL_SetBooleanProperty_REAL(i32 noundef %44, ptr noundef @.str.9, i1 noundef zeroext false)
  br label %46

46:                                               ; preds = %43, %40
  %47 = load i32, ptr %6, align 4
  %48 = and i32 %47, 16
  %49 = icmp ne i32 %48, 0
  br i1 %49, label %50, label %53

50:                                               ; preds = %46
  %51 = load i32, ptr %5, align 4
  %52 = call zeroext i1 @SDL_SetBooleanProperty_REAL(i32 noundef %51, ptr noundef @.str.10, i1 noundef zeroext true)
  br label %56

53:                                               ; preds = %46
  %54 = load i32, ptr %5, align 4
  %55 = call zeroext i1 @SDL_SetBooleanProperty_REAL(i32 noundef %54, ptr noundef @.str.10, i1 noundef zeroext false)
  br label %56

56:                                               ; preds = %53, %50
  %57 = load i32, ptr %6, align 4
  %58 = and i32 %57, 32
  %59 = icmp ne i32 %58, 0
  br i1 %59, label %60, label %63

60:                                               ; preds = %56
  %61 = load i32, ptr %5, align 4
  %62 = call zeroext i1 @SDL_SetBooleanProperty_REAL(i32 noundef %61, ptr noundef @.str.11, i1 noundef zeroext true)
  br label %66

63:                                               ; preds = %56
  %64 = load i32, ptr %5, align 4
  %65 = call zeroext i1 @SDL_SetBooleanProperty_REAL(i32 noundef %64, ptr noundef @.str.11, i1 noundef zeroext false)
  br label %66

66:                                               ; preds = %63, %60
  call void @llvm.lifetime.end.p0(i64 4, ptr %6) #7
  call void @llvm.lifetime.end.p0(i64 4, ptr %5) #7
  ret void
}

; Function Attrs: nounwind uwtable
define internal ptr @HIDAPI_GetDeviceByIndex(i32 noundef %0, ptr noundef %1) #0 {
  %3 = alloca ptr, align 8
  %4 = alloca i32, align 4
  %5 = alloca ptr, align 8
  %6 = alloca ptr, align 8
  %7 = alloca i32, align 4
  store i32 %0, ptr %4, align 4
  store ptr %1, ptr %5, align 8
  call void @llvm.lifetime.start.p0(i64 8, ptr %6) #7
  call void @SDL_AssertJoysticksLocked()
  %8 = load ptr, ptr @SDL_HIDAPI_devices, align 8
  store ptr %8, ptr %6, align 8
  br label %9

9:                                                ; preds = %55, %2
  %10 = load ptr, ptr %6, align 8
  %11 = icmp ne ptr %10, null
  br i1 %11, label %12, label %59

12:                                               ; preds = %9
  %13 = load ptr, ptr %6, align 8
  %14 = getelementptr inbounds nuw %struct.SDL_HIDAPI_Device, ptr %13, i32 0, i32 29
  %15 = load ptr, ptr %14, align 8
  %16 = icmp ne ptr %15, null
  br i1 %16, label %22, label %17

17:                                               ; preds = %12
  %18 = load ptr, ptr %6, align 8
  %19 = getelementptr inbounds nuw %struct.SDL_HIDAPI_Device, ptr %18, i32 0, i32 28
  %20 = load i8, ptr %19, align 2, !range !6, !noundef !7
  %21 = trunc i8 %20 to i1
  br i1 %21, label %22, label %23

22:                                               ; preds = %17, %12
  br label %55

23:                                               ; preds = %17
  %24 = load ptr, ptr %6, align 8
  %25 = getelementptr inbounds nuw %struct.SDL_HIDAPI_Device, ptr %24, i32 0, i32 19
  %26 = load ptr, ptr %25, align 8
  %27 = icmp ne ptr %26, null
  br i1 %27, label %28, label %54

28:                                               ; preds = %23
  %29 = load i32, ptr %4, align 4
  %30 = load ptr, ptr %6, align 8
  %31 = getelementptr inbounds nuw %struct.SDL_HIDAPI_Device, ptr %30, i32 0, i32 24
  %32 = load i32, ptr %31, align 4
  %33 = icmp slt i32 %29, %32
  br i1 %33, label %34, label %48

34:                                               ; preds = %28
  %35 = load ptr, ptr %5, align 8
  %36 = icmp ne ptr %35, null
  br i1 %36, label %37, label %46

37:                                               ; preds = %34
  %38 = load ptr, ptr %6, align 8
  %39 = getelementptr inbounds nuw %struct.SDL_HIDAPI_Device, ptr %38, i32 0, i32 25
  %40 = load ptr, ptr %39, align 8
  %41 = load i32, ptr %4, align 4
  %42 = sext i32 %41 to i64
  %43 = getelementptr inbounds i32, ptr %40, i64 %42
  %44 = load i32, ptr %43, align 4
  %45 = load ptr, ptr %5, align 8
  store i32 %44, ptr %45, align 4
  br label %46

46:                                               ; preds = %37, %34
  %47 = load ptr, ptr %6, align 8
  store ptr %47, ptr %3, align 8
  store i32 1, ptr %7, align 4
  br label %60

48:                                               ; preds = %28
  %49 = load ptr, ptr %6, align 8
  %50 = getelementptr inbounds nuw %struct.SDL_HIDAPI_Device, ptr %49, i32 0, i32 24
  %51 = load i32, ptr %50, align 4
  %52 = load i32, ptr %4, align 4
  %53 = sub nsw i32 %52, %51
  store i32 %53, ptr %4, align 4
  br label %54

54:                                               ; preds = %48, %23
  br label %55

55:                                               ; preds = %54, %22
  %56 = load ptr, ptr %6, align 8
  %57 = getelementptr inbounds nuw %struct.SDL_HIDAPI_Device, ptr %56, i32 0, i32 32
  %58 = load ptr, ptr %57, align 8
  store ptr %58, ptr %6, align 8
  br label %9, !llvm.loop !52

59:                                               ; preds = %9
  store ptr null, ptr %3, align 8
  store i32 1, ptr %7, align 4
  br label %60

60:                                               ; preds = %59, %46
  call void @llvm.lifetime.end.p0(i64 8, ptr %6) #7
  %61 = load ptr, ptr %3, align 8
  ret ptr %61
}

; Function Attrs: nounwind uwtable
define internal zeroext i1 @HIDAPI_JoystickOpen(ptr noundef %0, i32 noundef %1) #0 {
  %3 = alloca i1, align 1
  %4 = alloca ptr, align 8
  %5 = alloca i32, align 4
  %6 = alloca i32, align 4
  %7 = alloca ptr, align 8
  %8 = alloca ptr, align 8
  %9 = alloca i32, align 4
  store ptr %0, ptr %4, align 8
  store i32 %1, ptr %5, align 4
  call void @llvm.lifetime.start.p0(i64 4, ptr %6) #7
  store i32 0, ptr %6, align 4
  call void @llvm.lifetime.start.p0(i64 8, ptr %7) #7
  %10 = load i32, ptr %5, align 4
  %11 = call ptr @HIDAPI_GetDeviceByIndex(i32 noundef %10, ptr noundef %6)
  store ptr %11, ptr %7, align 8
  call void @llvm.lifetime.start.p0(i64 8, ptr %8) #7
  call void @SDL_AssertJoysticksLocked()
  %12 = load ptr, ptr %7, align 8
  %13 = icmp ne ptr %12, null
  br i1 %13, label %14, label %24

14:                                               ; preds = %2
  %15 = load ptr, ptr %7, align 8
  %16 = getelementptr inbounds nuw %struct.SDL_HIDAPI_Device, ptr %15, i32 0, i32 19
  %17 = load ptr, ptr %16, align 8
  %18 = icmp ne ptr %17, null
  br i1 %18, label %19, label %24

19:                                               ; preds = %14
  %20 = load ptr, ptr %7, align 8
  %21 = getelementptr inbounds nuw %struct.SDL_HIDAPI_Device, ptr %20, i32 0, i32 28
  %22 = load i8, ptr %21, align 2, !range !6, !noundef !7
  %23 = trunc i8 %22 to i1
  br i1 %23, label %24, label %27

24:                                               ; preds = %19, %14, %2
  %25 = load i32, ptr %5, align 4
  %26 = call zeroext i1 (ptr, ...) @SDL_SetError_REAL(ptr noundef @.str.30, i32 noundef %25)
  store i1 %26, ptr %3, align 1
  store i32 1, ptr %9, align 4
  br label %102

27:                                               ; preds = %19
  %28 = call noalias ptr @SDL_calloc_REAL(i64 noundef 1, i64 noundef 8) #9
  store ptr %28, ptr %8, align 8
  %29 = load ptr, ptr %8, align 8
  %30 = icmp ne ptr %29, null
  br i1 %30, label %32, label %31

31:                                               ; preds = %27
  store i1 false, ptr %3, align 1
  store i32 1, ptr %9, align 4
  br label %102

32:                                               ; preds = %27
  %33 = load ptr, ptr %7, align 8
  %34 = load ptr, ptr %8, align 8
  %35 = getelementptr inbounds nuw %struct.joystick_hwdata, ptr %34, i32 0, i32 0
  store ptr %33, ptr %35, align 8
  %36 = load ptr, ptr %7, align 8
  %37 = getelementptr inbounds nuw %struct.SDL_HIDAPI_Device, ptr %36, i32 0, i32 21
  %38 = load ptr, ptr %37, align 8
  call void @SDL_LockMutex_REAL(ptr noundef %38)
  %39 = load ptr, ptr %7, align 8
  %40 = getelementptr inbounds nuw %struct.SDL_HIDAPI_Device, ptr %39, i32 0, i32 27
  store i8 1, ptr %40, align 1
  %41 = load ptr, ptr %7, align 8
  %42 = getelementptr inbounds nuw %struct.SDL_HIDAPI_Device, ptr %41, i32 0, i32 19
  %43 = load ptr, ptr %42, align 8
  %44 = getelementptr inbounds nuw %struct.SDL_HIDAPI_DeviceDriver, ptr %43, i32 0, i32 9
  %45 = load ptr, ptr %44, align 8
  %46 = load ptr, ptr %7, align 8
  %47 = call zeroext i1 %45(ptr noundef %46)
  %48 = load ptr, ptr %7, align 8
  %49 = getelementptr inbounds nuw %struct.SDL_HIDAPI_Device, ptr %48, i32 0, i32 27
  store i8 0, ptr %49, align 1
  %50 = load ptr, ptr %7, align 8
  %51 = getelementptr inbounds nuw %struct.SDL_HIDAPI_Device, ptr %50, i32 0, i32 21
  %52 = load ptr, ptr %51, align 8
  call void @SDL_UnlockMutex_REAL(ptr noundef %52)
  %53 = load ptr, ptr %7, align 8
  %54 = getelementptr inbounds nuw %struct.SDL_HIDAPI_Device, ptr %53, i32 0, i32 24
  %55 = load i32, ptr %54, align 4
  %56 = icmp eq i32 %55, 0
  br i1 %56, label %57, label %60

57:                                               ; preds = %32
  %58 = load ptr, ptr %8, align 8
  call void @SDL_free_REAL(ptr noundef %58)
  %59 = call zeroext i1 (ptr, ...) @SDL_SetError_REAL(ptr noundef @.str.31)
  store i1 %59, ptr %3, align 1
  store i32 1, ptr %9, align 4
  br label %102

60:                                               ; preds = %32
  %61 = load ptr, ptr %7, align 8
  %62 = getelementptr inbounds nuw %struct.SDL_HIDAPI_Device, ptr %61, i32 0, i32 15
  %63 = load i8, ptr %62, align 4, !range !6, !noundef !7
  %64 = trunc i8 %63 to i1
  br i1 %64, label %65, label %68

65:                                               ; preds = %60
  %66 = load ptr, ptr %4, align 8
  %67 = getelementptr inbounds nuw %struct.SDL_Joystick, ptr %66, i32 0, i32 35
  store i32 2, ptr %67, align 4
  br label %71

68:                                               ; preds = %60
  %69 = load ptr, ptr %4, align 8
  %70 = getelementptr inbounds nuw %struct.SDL_Joystick, ptr %69, i32 0, i32 35
  store i32 1, ptr %70, align 4
  br label %71

71:                                               ; preds = %68, %65
  %72 = load ptr, ptr %7, align 8
  %73 = getelementptr inbounds nuw %struct.SDL_HIDAPI_Device, ptr %72, i32 0, i32 19
  %74 = load ptr, ptr %73, align 8
  %75 = getelementptr inbounds nuw %struct.SDL_HIDAPI_DeviceDriver, ptr %74, i32 0, i32 10
  %76 = load ptr, ptr %75, align 8
  %77 = load ptr, ptr %7, align 8
  %78 = load ptr, ptr %4, align 8
  %79 = call zeroext i1 %76(ptr noundef %77, ptr noundef %78)
  br i1 %79, label %84, label %80

80:                                               ; preds = %71
  %81 = load ptr, ptr %7, align 8
  %82 = load i32, ptr %6, align 4
  call void @HIDAPI_JoystickDisconnected(ptr noundef %81, i32 noundef %82)
  %83 = load ptr, ptr %8, align 8
  call void @SDL_free_REAL(ptr noundef %83)
  store i1 false, ptr %3, align 1
  store i32 1, ptr %9, align 4
  br label %102

84:                                               ; preds = %71
  %85 = load ptr, ptr %7, align 8
  %86 = load ptr, ptr %4, align 8
  call void @HIDAPI_UpdateJoystickProperties(ptr noundef %85, ptr noundef %86)
  %87 = load ptr, ptr %7, align 8
  %88 = getelementptr inbounds nuw %struct.SDL_HIDAPI_Device, ptr %87, i32 0, i32 7
  %89 = load ptr, ptr %88, align 8
  %90 = icmp ne ptr %89, null
  br i1 %90, label %91, label %98

91:                                               ; preds = %84
  %92 = load ptr, ptr %7, align 8
  %93 = getelementptr inbounds nuw %struct.SDL_HIDAPI_Device, ptr %92, i32 0, i32 7
  %94 = load ptr, ptr %93, align 8
  %95 = call noalias ptr @SDL_strdup_REAL(ptr noundef %94)
  %96 = load ptr, ptr %4, align 8
  %97 = getelementptr inbounds nuw %struct.SDL_Joystick, ptr %96, i32 0, i32 3
  store ptr %95, ptr %97, align 8
  br label %98

98:                                               ; preds = %91, %84
  %99 = load ptr, ptr %8, align 8
  %100 = load ptr, ptr %4, align 8
  %101 = getelementptr inbounds nuw %struct.SDL_Joystick, ptr %100, i32 0, i32 46
  store ptr %99, ptr %101, align 8
  store i1 true, ptr %3, align 1
  store i32 1, ptr %9, align 4
  br label %102

102:                                              ; preds = %98, %80, %57, %31, %24
  call void @llvm.lifetime.end.p0(i64 8, ptr %8) #7
  call void @llvm.lifetime.end.p0(i64 8, ptr %7) #7
  call void @llvm.lifetime.end.p0(i64 4, ptr %6) #7
  %103 = load i1, ptr %3, align 1
  ret i1 %103
}