; Function Attrs: nounwind uwtable
define internal zeroext i1 @HIDAPI_JoystickOpen(ptr noundef %0, i32 noundef %1) #0 {
  tail call void @SDL_AssertJoysticksLocked() #9
  %.024.i = load ptr, ptr @SDL_HIDAPI_devices, align 8
  %.not25.i = icmp eq ptr %.024.i, null
  br i1 %.not25.i, label %HIDAPI_GetDeviceByIndex.exit.thread, label %.lr.ph.i

.lr.ph.i:                                         ; preds = %2, %18
  %.027.i = phi ptr [ %.0.i, %18 ], [ %.024.i, %2 ]
  %.01526.i = phi i32 [ %.1.i, %18 ], [ %1, %2 ]
  %3 = getelementptr inbounds nuw i8, ptr %.027.i, i64 160
  %4 = load ptr, ptr %3, align 8
  %.not18.i = icmp eq ptr %4, null
  br i1 %.not18.i, label %5, label %18

5:                                                ; preds = %.lr.ph.i
  %6 = getelementptr inbounds nuw i8, ptr %.027.i, i64 154
  %7 = load i8, ptr %6, align 2, !range !6, !noundef !7
  %8 = trunc nuw i8 %7 to i1
  br i1 %8, label %18, label %9

9:                                                ; preds = %5
  %10 = getelementptr inbounds nuw i8, ptr %.027.i, i64 104
  %11 = load ptr, ptr %10, align 8
  %.not19.i = icmp eq ptr %11, null
  br i1 %.not19.i, label %18, label %12

12:                                               ; preds = %9
  %13 = getelementptr inbounds nuw i8, ptr %.027.i, i64 140
  %14 = load i32, ptr %13, align 4
  %15 = icmp slt i32 %.01526.i, %14
  br i1 %15, label %20, label %16

16:                                               ; preds = %12
  %17 = sub nsw i32 %.01526.i, %14
  br label %18

18:                                               ; preds = %16, %9, %5, %.lr.ph.i
  %.1.i = phi i32 [ %.01526.i, %.lr.ph.i ], [ %.01526.i, %5 ], [ %17, %16 ], [ %.01526.i, %9 ]
  %19 = getelementptr inbounds nuw i8, ptr %.027.i, i64 184
  %.0.i = load ptr, ptr %19, align 8
  %.not.i = icmp eq ptr %.0.i, null
  br i1 %.not.i, label %HIDAPI_GetDeviceByIndex.exit.thread, label %.lr.ph.i, !llvm.loop !37

HIDAPI_GetDeviceByIndex.exit.thread:              ; preds = %18, %2
  tail call void @SDL_AssertJoysticksLocked() #9
  br label %33

20:                                               ; preds = %12
  %21 = getelementptr inbounds nuw i8, ptr %.027.i, i64 104
  %22 = getelementptr inbounds nuw i8, ptr %.027.i, i64 140
  %23 = getelementptr inbounds nuw i8, ptr %.027.i, i64 144
  %24 = load ptr, ptr %23, align 8
  %25 = sext i32 %.01526.i to i64
  %26 = getelementptr inbounds i32, ptr %24, i64 %25
  %27 = load i32, ptr %26, align 4
  tail call void @SDL_AssertJoysticksLocked() #9
  %28 = load ptr, ptr %21, align 8
  %.not34 = icmp eq ptr %28, null
  br i1 %.not34, label %33, label %29

29:                                               ; preds = %20
  %30 = getelementptr inbounds nuw i8, ptr %.027.i, i64 154
  %31 = load i8, ptr %30, align 2, !range !6, !noundef !7
  %32 = trunc nuw i8 %31 to i1
  br i1 %32, label %33, label %35

33:                                               ; preds = %HIDAPI_GetDeviceByIndex.exit.thread, %29, %20
  %34 = tail call zeroext i1 (ptr, ...) @SDL_SetError_REAL(ptr noundef nonnull @.str.30, i32 noundef %1) #9
  br label %83

35:                                               ; preds = %29
  %36 = tail call noalias dereferenceable_or_null(8) ptr @SDL_calloc_REAL(i64 noundef 1, i64 noundef 8) #11
  %.not35 = icmp eq ptr %36, null
  br i1 %.not35, label %83, label %37

37:                                               ; preds = %35
  store ptr %.027.i, ptr %36, align 8
  %38 = getelementptr inbounds nuw i8, ptr %.027.i, i64 120
  %39 = load ptr, ptr %38, align 8
  tail call void @SDL_LockMutex_REAL(ptr noundef %39) #9
  %40 = getelementptr inbounds nuw i8, ptr %.027.i, i64 153
  store i8 1, ptr %40, align 1
  %41 = load ptr, ptr %21, align 8
  %42 = getelementptr inbounds nuw i8, ptr %41, i64 72
  %43 = load ptr, ptr %42, align 8
  %44 = tail call zeroext i1 %43(ptr noundef nonnull %.027.i) #9
  store i8 0, ptr %40, align 1
  %45 = load ptr, ptr %38, align 8
  tail call void @SDL_UnlockMutex_REAL(ptr noundef %45) #9
  %46 = load i32, ptr %22, align 4
  %47 = icmp eq i32 %46, 0
  br i1 %47, label %48, label %50

48:                                               ; preds = %37
  tail call void @SDL_free_REAL(ptr noundef nonnull %36) #9
  %49 = tail call zeroext i1 (ptr, ...) @SDL_SetError_REAL(ptr noundef nonnull @.str.31) #9
  br label %83

50:                                               ; preds = %37
  %51 = getelementptr inbounds nuw i8, ptr %.027.i, i64 84
  %52 = load i8, ptr %51, align 4, !range !6, !noundef !7
  %53 = trunc nuw i8 %52 to i1
  %spec.select = select i1 %53, i32 2, i32 1
  %54 = getelementptr inbounds nuw i8, ptr %0, i64 228
  store i32 %spec.select, ptr %54, align 4
  %55 = load ptr, ptr %21, align 8
  %56 = getelementptr inbounds nuw i8, ptr %55, i64 80
  %57 = load ptr, ptr %56, align 8
  %58 = tail call zeroext i1 %57(ptr noundef nonnull %.027.i, ptr noundef nonnull %0) #9
  br i1 %58, label %60, label %59

59:                                               ; preds = %50
  tail call void @HIDAPI_JoystickDisconnected(ptr noundef nonnull %.027.i, i32 noundef %27)
  tail call void @SDL_free_REAL(ptr noundef nonnull %36) #9
  br label %83

60:                                               ; preds = %50
  %61 = tail call i32 @SDL_GetJoystickProperties_REAL(ptr noundef nonnull %0) #9
  %62 = load ptr, ptr %21, align 8
  %63 = getelementptr inbounds nuw i8, ptr %62, i64 104
  %64 = load ptr, ptr %63, align 8
  %65 = tail call i32 %64(ptr noundef nonnull %.027.i, ptr noundef nonnull %0) #9
  %66 = and i32 %65, 1
  %.not.i37 = icmp ne i32 %66, 0
  %67 = tail call zeroext i1 @SDL_SetBooleanProperty_REAL(i32 noundef %61, ptr noundef nonnull @.str.7, i1 noundef zeroext %.not.i37) #9
  %68 = and i32 %65, 2
  %.not18.i38 = icmp ne i32 %68, 0
  %69 = tail call zeroext i1 @SDL_SetBooleanProperty_REAL(i32 noundef %61, ptr noundef nonnull @.str.8, i1 noundef zeroext %.not18.i38) #9
  %70 = and i32 %65, 4
  %.not19.i39 = icmp ne i32 %70, 0
  %71 = tail call zeroext i1 @SDL_SetBooleanProperty_REAL(i32 noundef %61, ptr noundef nonnull @.str.9, i1 noundef zeroext %.not19.i39) #9
  %72 = and i32 %65, 16
  %.not20.i = icmp ne i32 %72, 0
  %73 = tail call zeroext i1 @SDL_SetBooleanProperty_REAL(i32 noundef %61, ptr noundef nonnull @.str.10, i1 noundef zeroext %.not20.i) #9
  %74 = and i32 %65, 32
  %.not21.i = icmp ne i32 %74, 0
  %75 = tail call zeroext i1 @SDL_SetBooleanProperty_REAL(i32 noundef %61, ptr noundef nonnull @.str.11, i1 noundef zeroext %.not21.i) #9
  %76 = getelementptr inbounds nuw i8, ptr %.027.i, i64 40
  %77 = load ptr, ptr %76, align 8
  %.not36 = icmp eq ptr %77, null
  br i1 %.not36, label %81, label %78

78:                                               ; preds = %60
  %79 = tail call noalias ptr @SDL_strdup_REAL(ptr noundef nonnull %77) #9
  %80 = getelementptr inbounds nuw i8, ptr %0, i64 24
  store ptr %79, ptr %80, align 8
  br label %81

81:                                               ; preds = %78, %60
  %82 = getelementptr inbounds nuw i8, ptr %0, i64 328
  store ptr %36, ptr %82, align 8
  br label %83

83:                                               ; preds = %35, %81, %59, %48, %33
  %.0 = phi i1 [ %34, %33 ], [ %49, %48 ], [ true, %81 ], [ false, %59 ], [ false, %35 ]
  ret i1 %.0
}